; Function Attrs: nounwind uwtable
define internal fastcc i32 @ecp_randomize_mxz(ptr noundef %0, ptr noundef %1, ptr noundef nonnull %2, ptr noundef %3) unnamed_addr #7 {
  %5 = alloca %struct.mbedtls_mpi, align 8
  call void @llvm.lifetime.start.p0(i64 16, ptr nonnull %5) #21
  call void @mbedtls_mpi_init(ptr noundef nonnull %5) #21
  %6 = getelementptr inbounds nuw i8, ptr %0, i64 8
  %7 = call i32 @mbedtls_mpi_random(ptr noundef nonnull %5, i64 noundef 2, ptr noundef nonnull %6, ptr noundef nonnull %2, ptr noundef %3) #21
  %.not = icmp eq i32 %7, 0
  br i1 %.not, label %8, label %13

8:                                                ; preds = %4
  %9 = call fastcc i32 @mbedtls_mpi_mul_mod(ptr noundef nonnull %0, ptr noundef %1, ptr noundef %1, ptr noundef nonnull %5)
  %.not12 = icmp eq i32 %9, 0
  br i1 %.not12, label %10, label %13

10:                                               ; preds = %8
  %11 = getelementptr inbounds nuw i8, ptr %1, i64 32
  %12 = call fastcc i32 @mbedtls_mpi_mul_mod(ptr noundef nonnull %0, ptr noundef nonnull %11, ptr noundef nonnull %11, ptr noundef nonnull %5)
  br label %13

13:                                               ; preds = %10, %8, %4
  %.0 = phi i32 [ %7, %4 ], [ %9, %8 ], [ %12, %10 ]
  call void @mbedtls_mpi_free(ptr noundef nonnull %5) #21
  %14 = icmp eq i32 %.0, -14
  %spec.store.select = select i1 %14, i32 -19712, i32 %.0
  call void @llvm.lifetime.end.p0(i64 16, ptr nonnull %5) #21
  ret i32 %spec.store.select
}